target datalayout = "e-m:e-p270:32:32-p271:32:32-p272:64:64-i64:64-i128:128-f80:128-n8:16:32:64-S128"
target triple = "x86_64-pc-linux-gnu"

%struct.PsqlScanStateData = type { ptr, ptr, ptr, ptr, ptr, ptr, i32, i8, i8, ptr, ptr, i32, i32, i32, i32, ptr, i32, [4 x i8], i32, ptr, ptr }
%struct.StackElem = type { ptr, ptr, ptr, ptr, ptr }

@expr_start_offset = internal global i32 0, align 4
@expr_source = internal global ptr null, align 8
@expr_lineno = internal global i32 0, align 4
@expr_command = internal global ptr null, align 8

; Function Attrs: nounwind uwtable
define dso_local ptr @expr_scanner_init(ptr noundef %0, ptr noundef %1, i32 noundef %2, i32 noundef %3, ptr noundef %4) #0 {
  %6 = alloca ptr, align 8
  %7 = alloca ptr, align 8
  %8 = alloca i32, align 4
  %9 = alloca i32, align 4
  %10 = alloca ptr, align 8
  store ptr %0, ptr %6, align 8
  store ptr %1, ptr %7, align 8
  store i32 %2, ptr %8, align 4
  store i32 %3, ptr %9, align 4
  store ptr %4, ptr %10, align 8
  %11 = load ptr, ptr %7, align 8
  store ptr %11, ptr @expr_source, align 8
  %12 = load i32, ptr %8, align 4
  store i32 %12, ptr @expr_lineno, align 4
  %13 = load i32, ptr %9, align 4
  store i32 %13, ptr @expr_start_offset, align 4
  %14 = load ptr, ptr %10, align 8
  store ptr %14, ptr @expr_command, align 8
  %15 = load ptr, ptr %6, align 8
  %16 = getelementptr inbounds nuw %struct.PsqlScanStateData, ptr %15, i32 0, i32 1
  store ptr null, ptr %16, align 8
  %17 = load ptr, ptr %6, align 8
  %18 = getelementptr inbounds nuw %struct.PsqlScanStateData, ptr %17, i32 0, i32 2
  %19 = load ptr, ptr %18, align 8
  %20 = icmp ne ptr %19, null
  br i1 %20, label %21, label %30

21:                                               ; preds = %5
  %22 = load ptr, ptr %6, align 8
  %23 = getelementptr inbounds nuw %struct.PsqlScanStateData, ptr %22, i32 0, i32 2
  %24 = load ptr, ptr %23, align 8
  %25 = getelementptr inbounds nuw %struct.StackElem, ptr %24, i32 0, i32 0
  %26 = load ptr, ptr %25, align 8
  %27 = load ptr, ptr %6, align 8
  %28 = getelementptr inbounds nuw %struct.PsqlScanStateData, ptr %27, i32 0, i32 0
  %29 = load ptr, ptr %28, align 8
  call void @expr_yy_switch_to_buffer(ptr noundef %26, ptr noundef %29)
  br label %37

30:                                               ; preds = %5
  %31 = load ptr, ptr %6, align 8
  %32 = getelementptr inbounds nuw %struct.PsqlScanStateData, ptr %31, i32 0, i32 3
  %33 = load ptr, ptr %32, align 8
  %34 = load ptr, ptr %6, align 8
  %35 = getelementptr inbounds nuw %struct.PsqlScanStateData, ptr %34, i32 0, i32 0
  %36 = load ptr, ptr %35, align 8
  call void @expr_yy_switch_to_buffer(ptr noundef %33, ptr noundef %36)
  br label %37

37:                                               ; preds = %30, %21
  %38 = load ptr, ptr %6, align 8
  %39 = getelementptr inbounds nuw %struct.PsqlScanStateData, ptr %38, i32 0, i32 11
  store i32 1, ptr %39, align 8
  %40 = load ptr, ptr %6, align 8
  %41 = getelementptr inbounds nuw %struct.PsqlScanStateData, ptr %40, i32 0, i32 0
  %42 = load ptr, ptr %41, align 8
  ret ptr %42
}