; Function Attrs: nounwind uwtable
define dso_local ptr @expr_scanner_init(ptr noundef captures(none) initializes((8, 16)) %0, ptr noundef %1, i32 noundef %2, i32 noundef %3, ptr noundef %4) local_unnamed_addr #0 {
  store ptr %1, ptr @expr_source, align 8
  store i32 %2, ptr @expr_lineno, align 4
  store i32 %3, ptr @expr_start_offset, align 4
  store ptr %4, ptr @expr_command, align 8
  %6 = getelementptr inbounds nuw i8, ptr %0, i64 8
  store ptr null, ptr %6, align 8
  %7 = getelementptr inbounds nuw i8, ptr %0, i64 16
  %8 = load ptr, ptr %7, align 8
  %.not = icmp eq ptr %8, null
  %9 = getelementptr inbounds nuw i8, ptr %0, i64 24
  %.sink.in = select i1 %.not, ptr %9, ptr %8
  %.sink = load ptr, ptr %.sink.in, align 8
  %10 = load ptr, ptr %0, align 8
  tail call void @expr_yy_switch_to_buffer(ptr noundef %.sink, ptr noundef %10)
  %11 = getelementptr inbounds nuw i8, ptr %0, i64 72
  store i32 1, ptr %11, align 8
  %12 = load ptr, ptr %0, align 8
  ret ptr %12
}